target datalayout = "e-m:e-p270:32:32-p271:32:32-p272:64:64-i64:64-i128:128-f80:128-n8:16:32:64-S128"
target triple = "x86_64-pc-linux-gnu"

%struct.expert_field = type { i32, i32 }

@hf_isis_lsp_clv_srv6_sid_struct_lb_len = internal global i32 0, align 4
@hf_isis_lsp_clv_srv6_sid_struct_ln_len = internal global i32 0, align 4
@hf_isis_lsp_clv_srv6_sid_struct_fun_len = internal global i32 0, align 4
@hf_isis_lsp_clv_srv6_sid_struct_arg_len = internal global i32 0, align 4
@ei_isis_lsp_malformed_subtlv = internal global %struct.expert_field zeroinitializer, align 4
@.str.856 = private unnamed_addr constant [44 x i8] c"Invalid Sub-Sub-TLV Length %d (should be 4)\00", align 1

; Function Attrs: null_pointer_is_valid sspstrong uwtable
define internal void @dissect_srv6_sid_struct_subsubclv(ptr noundef %0, ptr noundef %1, ptr noundef %2, ptr noundef %3, i32 noundef %4, i32 noundef %5, i32 noundef %6) #0 {
  %8 = alloca ptr, align 8
  %9 = alloca ptr, align 8
  %10 = alloca ptr, align 8
  %11 = alloca ptr, align 8
  %12 = alloca i32, align 4
  %13 = alloca i32, align 4
  %14 = alloca i32, align 4
  store ptr %0, ptr %8, align 8
  store ptr %1, ptr %9, align 8
  store ptr %2, ptr %10, align 8
  store ptr %3, ptr %11, align 8
  store i32 %4, ptr %12, align 4
  store i32 %5, ptr %13, align 4
  store i32 %6, ptr %14, align 4
  %15 = load i32, ptr %14, align 4
  %16 = icmp ne i32 %15, 4
  br i1 %16, label %17, label %25

17:                                               ; preds = %7
  %18 = load ptr, ptr %10, align 8
  %19 = load ptr, ptr %9, align 8
  %20 = load ptr, ptr %8, align 8
  %21 = load i32, ptr %12, align 4
  %22 = sub i32 %21, 2
  %23 = load i32, ptr %14, align 4
  %24 = call ptr (ptr, ptr, ptr, ptr, i32, i32, ptr, ...) @proto_tree_add_expert_format(ptr noundef %18, ptr noundef %19, ptr noundef @ei_isis_lsp_malformed_subtlv, ptr noundef %20, i32 noundef %22, i32 noundef 2, ptr noundef @.str.856, i32 noundef %23)
  br label %49

25:                                               ; preds = %7
  %26 = load ptr, ptr %10, align 8
  %27 = load i32, ptr @hf_isis_lsp_clv_srv6_sid_struct_lb_len, align 4
  %28 = load ptr, ptr %8, align 8
  %29 = load i32, ptr %12, align 4
  %30 = call ptr @proto_tree_add_item(ptr noundef %26, i32 noundef %27, ptr noundef %28, i32 noundef %29, i32 noundef 1, i32 noundef 0)
  %31 = load ptr, ptr %10, align 8
  %32 = load i32, ptr @hf_isis_lsp_clv_srv6_sid_struct_ln_len, align 4
  %33 = load ptr, ptr %8, align 8
  %34 = load i32, ptr %12, align 4
  %35 = add i32 %34, 1
  %36 = call ptr @proto_tree_add_item(ptr noundef %31, i32 noundef %32, ptr noundef %33, i32 noundef %35, i32 noundef 1, i32 noundef 0)
  %37 = load ptr, ptr %10, align 8
  %38 = load i32, ptr @hf_isis_lsp_clv_srv6_sid_struct_fun_len, align 4
  %39 = load ptr, ptr %8, align 8
  %40 = load i32, ptr %12, align 4
  %41 = add i32 %40, 2
  %42 = call ptr @proto_tree_add_item(ptr noundef %37, i32 noundef %38, ptr noundef %39, i32 noundef %41, i32 noundef 1, i32 noundef 0)
  %43 = load ptr, ptr %10, align 8
  %44 = load i32, ptr @hf_isis_lsp_clv_srv6_sid_struct_arg_len, align 4
  %45 = load ptr, ptr %8, align 8
  %46 = load i32, ptr %12, align 4
  %47 = add i32 %46, 3
  %48 = call ptr @proto_tree_add_item(ptr noundef %43, i32 noundef %44, ptr noundef %45, i32 noundef %47, i32 noundef 1, i32 noundef 0)
  br label %49

49:                                               ; preds = %25, %17
  ret void
}