; Function Attrs: null_pointer_is_valid sspstrong uwtable
define internal fastcc void @dissect_srv6_sid_struct_subsubclv(ptr noundef %0, ptr noundef %1, ptr noundef %2, i32 noundef %3, i32 noundef range(i32 0, 254) %4) unnamed_addr #0 {
  %.not = icmp eq i32 %4, 4
  br i1 %.not, label %9, label %6

6:                                                ; preds = %5
  %7 = add i32 %3, -2
  %8 = tail call ptr (ptr, ptr, ptr, ptr, i32, i32, ptr, ...) @proto_tree_add_expert_format(ptr noundef %2, ptr noundef %1, ptr noundef nonnull @ei_isis_lsp_malformed_subtlv, ptr noundef %0, i32 noundef %7, i32 noundef 2, ptr noundef nonnull @.str.856, i32 noundef %4)
  br label %21

9:                                                ; preds = %5
  %10 = load i32, ptr @hf_isis_lsp_clv_srv6_sid_struct_lb_len, align 4
  %11 = tail call ptr @proto_tree_add_item(ptr noundef %2, i32 noundef %10, ptr noundef %0, i32 noundef %3, i32 noundef 1, i32 noundef 0)
  %12 = load i32, ptr @hf_isis_lsp_clv_srv6_sid_struct_ln_len, align 4
  %13 = add i32 %3, 1
  %14 = tail call ptr @proto_tree_add_item(ptr noundef %2, i32 noundef %12, ptr noundef %0, i32 noundef %13, i32 noundef 1, i32 noundef 0)
  %15 = load i32, ptr @hf_isis_lsp_clv_srv6_sid_struct_fun_len, align 4
  %16 = add i32 %3, 2
  %17 = tail call ptr @proto_tree_add_item(ptr noundef %2, i32 noundef %15, ptr noundef %0, i32 noundef %16, i32 noundef 1, i32 noundef 0)
  %18 = load i32, ptr @hf_isis_lsp_clv_srv6_sid_struct_arg_len, align 4
  %19 = add i32 %3, 3
  %20 = tail call ptr @proto_tree_add_item(ptr noundef %2, i32 noundef %18, ptr noundef %0, i32 noundef %19, i32 noundef 1, i32 noundef 0)
  br label %21

21:                                               ; preds = %9, %6
  ret void
}